; Function Attrs: mustprogress uwtable
define hidden void @_ZNK3opt15model_based_opt6n_signERK8rational(ptr dead_on_unwind noalias writable sret(%class.rational) align 8 initializes((0, 4), (8, 20), (24, 32)) %0, ptr noundef nonnull readnone align 8 captures(none) dereferenceable(112) %1, ptr noundef nonnull readonly align 8 captures(none) dereferenceable(32) %2) local_unnamed_addr #3 align 2 {
  %4 = load i32, ptr %2, align 8, !tbaa !10
  %.inv = icmp slt i32 %4, 1
  %5 = select i1 %.inv, i32 1, i32 -1
  %6 = getelementptr inbounds nuw i8, ptr %0, i64 4
  %7 = load i8, ptr %6, align 4
  %8 = and i8 %7, -4
  %9 = getelementptr inbounds nuw i8, ptr %0, i64 8
  store ptr null, ptr %9, align 8, !tbaa !3
  %10 = getelementptr inbounds nuw i8, ptr %0, i64 16
  store i32 1, ptr %10, align 8, !tbaa !10
  %11 = getelementptr inbounds nuw i8, ptr %0, i64 20
  %12 = load i8, ptr %11, align 4
  %13 = and i8 %12, -4
  store i8 %13, ptr %11, align 4
  %14 = getelementptr inbounds nuw i8, ptr %0, i64 24
  store ptr null, ptr %14, align 8, !tbaa !3
  %15 = load ptr, ptr @_ZN8rational13g_mpq_managerE, align 8, !tbaa !11
  store i32 %5, ptr %0, align 8, !tbaa !10
  store i8 %8, ptr %6, align 4
  tail call void @_ZN11mpz_managerILb1EE3delEPS0_R3mpz(ptr noundef nonnull align 8 dereferenceable(728) %15, ptr noundef nonnull align 8 dereferenceable(16) %10)
  store i32 1, ptr %10, align 8, !tbaa !10
  %16 = load i8, ptr %11, align 4
  %17 = and i8 %16, -2
  store i8 %17, ptr %11, align 4
  ret void
}